target datalayout = "e-m:e-p270:32:32-p271:32:32-p272:64:64-i64:64-i128:128-f80:128-n8:16:32:64-S128"
target triple = "x86_64-pc-linux-gnu"

%struct._archiveHandle = type { %struct.Archive, i32, ptr, ptr, i64, i64, i32, %struct.sqlparseInfo, i64, i32, ptr, i64, i64, i64, ptr, ptr, ptr, ptr, ptr, ptr, ptr, ptr, ptr, ptr, ptr, ptr, ptr, ptr, ptr, ptr, ptr, ptr, ptr, ptr, ptr, ptr, ptr, ptr, ptr, ptr, ptr, ptr, ptr, ptr, i32, i32, i8, i32, i8, i32, ptr, ptr, ptr, ptr, i32, i32, ptr, ptr, ptr, %struct.pg_compress_specification, i8, i32, i32, ptr, ptr, ptr, ptr, ptr, i32, ptr, i64, i64, i32, i32, i32, i32, ptr, ptr }
%struct.Archive = type { ptr, ptr, i32, ptr, i32, i8, i32, i32, i32, ptr, i32, i8, ptr, ptr, i8, i32, ptr }
%struct.sqlparseInfo = type { i32, i8, ptr }
%struct.pg_compress_specification = type { i32, i32, i32, i32, i8, ptr }
%struct.PQExpBufferData = type { ptr, i64, i64 }

@.str.14 = private unnamed_addr constant [36 x i8] c"error returned by PQputCopyData: %s\00", align 1
@.str.15 = private unnamed_addr constant [24 x i8] c"could not execute query\00", align 1
@.str.38 = private unnamed_addr constant [22 x i8] c"%s: %sCommand was: %s\00", align 1

; Function Attrs: nounwind uwtable
define internal void @ExecuteSqlCommand(ptr noundef %0, ptr noundef %1, ptr noundef %2) #0 {
  %4 = alloca ptr, align 8
  %5 = alloca ptr, align 8
  %6 = alloca ptr, align 8
  %7 = alloca ptr, align 8
  %8 = alloca ptr, align 8
  store ptr %0, ptr %4, align 8
  store ptr %1, ptr %5, align 8
  store ptr %2, ptr %6, align 8
  call void @llvm.lifetime.start.p0(i64 8, ptr %7) #9
  %9 = load ptr, ptr %4, align 8
  %10 = getelementptr inbounds nuw %struct._archiveHandle, ptr %9, i32 0, i32 42
  %11 = load ptr, ptr %10, align 8
  store ptr %11, ptr %7, align 8
  call void @llvm.lifetime.start.p0(i64 8, ptr %8) #9
  %12 = load ptr, ptr %7, align 8
  %13 = load ptr, ptr %5, align 8
  %14 = call ptr @PQexec(ptr noundef %12, ptr noundef %13)
  store ptr %14, ptr %8, align 8
  %15 = load ptr, ptr %8, align 8
  %16 = call i32 @PQresultStatus(ptr noundef %15)
  switch i32 %16, label %21 [
    i32 1, label %17
    i32 2, label %17
    i32 0, label %17
    i32 4, label %18
  ]

17:                                               ; preds = %3, %3, %3
  br label %27

18:                                               ; preds = %3
  %19 = load ptr, ptr %4, align 8
  %20 = getelementptr inbounds nuw %struct._archiveHandle, ptr %19, i32 0, i32 46
  store i8 1, ptr %20, align 8
  br label %27

21:                                               ; preds = %3
  %22 = load ptr, ptr %4, align 8
  %23 = load ptr, ptr %6, align 8
  %24 = load ptr, ptr %7, align 8
  %25 = call ptr @PQerrorMessage(ptr noundef %24)
  %26 = load ptr, ptr %5, align 8
  call void (ptr, ptr, ...) @warn_or_exit_horribly(ptr noundef %22, ptr noundef @.str.38, ptr noundef %23, ptr noundef %25, ptr noundef %26)
  br label %27

27:                                               ; preds = %21, %18, %17
  %28 = load ptr, ptr %8, align 8
  call void @PQclear(ptr noundef %28)
  call void @llvm.lifetime.end.p0(i64 8, ptr %8) #9
  call void @llvm.lifetime.end.p0(i64 8, ptr %7) #9
  ret void
}

; Function Attrs: nounwind uwtable
define internal void @ExecuteSimpleCommands(ptr noundef %0, ptr noundef %1, i64 noundef %2) #0 {
  %4 = alloca ptr, align 8
  %5 = alloca ptr, align 8
  %6 = alloca i64, align 8
  %7 = alloca ptr, align 8
  %8 = alloca ptr, align 8
  %9 = alloca i8, align 1
  store ptr %0, ptr %4, align 8
  store ptr %1, ptr %5, align 8
  store i64 %2, ptr %6, align 8
  call void @llvm.lifetime.start.p0(i64 8, ptr %7) #9
  %10 = load ptr, ptr %5, align 8
  store ptr %10, ptr %7, align 8
  call void @llvm.lifetime.start.p0(i64 8, ptr %8) #9
  %11 = load ptr, ptr %5, align 8
  %12 = load i64, ptr %6, align 8
  %13 = getelementptr inbounds nuw i8, ptr %11, i64 %12
  store ptr %13, ptr %8, align 8
  %14 = load ptr, ptr %4, align 8
  %15 = getelementptr inbounds nuw %struct._archiveHandle, ptr %14, i32 0, i32 7
  %16 = getelementptr inbounds nuw %struct.sqlparseInfo, ptr %15, i32 0, i32 2
  %17 = load ptr, ptr %16, align 8
  %18 = icmp eq ptr %17, null
  br i1 %18, label %19, label %24

19:                                               ; preds = %3
  %20 = call ptr @createPQExpBuffer()
  %21 = load ptr, ptr %4, align 8
  %22 = getelementptr inbounds nuw %struct._archiveHandle, ptr %21, i32 0, i32 7
  %23 = getelementptr inbounds nuw %struct.sqlparseInfo, ptr %22, i32 0, i32 2
  store ptr %20, ptr %23, align 8
  br label %24

24:                                               ; preds = %19, %3
  br label %25

25:                                               ; preds = %143, %24
  %26 = load ptr, ptr %7, align 8
  %27 = load ptr, ptr %8, align 8
  %28 = icmp ult ptr %26, %27
  br i1 %28, label %29, label %146

29:                                               ; preds = %25
  call void @llvm.lifetime.start.p0(i64 1, ptr %9) #9
  %30 = load ptr, ptr %7, align 8
  %31 = load i8, ptr %30, align 1
  store i8 %31, ptr %9, align 1
  %32 = load i8, ptr %9, align 1
  %33 = sext i8 %32 to i32
  %34 = icmp eq i32 %33, 10
  br i1 %34, label %35, label %43

35:                                               ; preds = %29
  %36 = load ptr, ptr %4, align 8
  %37 = getelementptr inbounds nuw %struct._archiveHandle, ptr %36, i32 0, i32 7
  %38 = getelementptr inbounds nuw %struct.sqlparseInfo, ptr %37, i32 0, i32 2
  %39 = load ptr, ptr %38, align 8
  %40 = getelementptr inbounds nuw %struct.PQExpBufferData, ptr %39, i32 0, i32 1
  %41 = load i64, ptr %40, align 8
  %42 = icmp eq i64 %41, 0
  br i1 %42, label %49, label %43

43:                                               ; preds = %35, %29
  %44 = load ptr, ptr %4, align 8
  %45 = getelementptr inbounds nuw %struct._archiveHandle, ptr %44, i32 0, i32 7
  %46 = getelementptr inbounds nuw %struct.sqlparseInfo, ptr %45, i32 0, i32 2
  %47 = load ptr, ptr %46, align 8
  %48 = load i8, ptr %9, align 1
  call void @appendPQExpBufferChar(ptr noundef %47, i8 noundef signext %48)
  br label %49

49:                                               ; preds = %43, %35
  %50 = load ptr, ptr %4, align 8
  %51 = getelementptr inbounds nuw %struct._archiveHandle, ptr %50, i32 0, i32 7
  %52 = getelementptr inbounds nuw %struct.sqlparseInfo, ptr %51, i32 0, i32 0
  %53 = load i32, ptr %52, align 8
  switch i32 %53, label %142 [
    i32 0, label %54
    i32 1, label %92
    i32 2, label %133
  ]

54:                                               ; preds = %49
  %55 = load i8, ptr %9, align 1
  %56 = sext i8 %55 to i32
  %57 = icmp eq i32 %56, 59
  br i1 %57, label %58, label %70

58:                                               ; preds = %54
  %59 = load ptr, ptr %4, align 8
  %60 = load ptr, ptr %4, align 8
  %61 = getelementptr inbounds nuw %struct._archiveHandle, ptr %60, i32 0, i32 7
  %62 = getelementptr inbounds nuw %struct.sqlparseInfo, ptr %61, i32 0, i32 2
  %63 = load ptr, ptr %62, align 8
  %64 = getelementptr inbounds nuw %struct.PQExpBufferData, ptr %63, i32 0, i32 0
  %65 = load ptr, ptr %64, align 8
  call void @ExecuteSqlCommand(ptr noundef %59, ptr noundef %65, ptr noundef @.str.15)
  %66 = load ptr, ptr %4, align 8
  %67 = getelementptr inbounds nuw %struct._archiveHandle, ptr %66, i32 0, i32 7
  %68 = getelementptr inbounds nuw %struct.sqlparseInfo, ptr %67, i32 0, i32 2
  %69 = load ptr, ptr %68, align 8
  call void @resetPQExpBuffer(ptr noundef %69)
  br label %91

70:                                               ; preds = %54
  %71 = load i8, ptr %9, align 1
  %72 = sext i8 %71 to i32
  %73 = icmp eq i32 %72, 39
  br i1 %73, label %74, label %81

74:                                               ; preds = %70
  %75 = load ptr, ptr %4, align 8
  %76 = getelementptr inbounds nuw %struct._archiveHandle, ptr %75, i32 0, i32 7
  %77 = getelementptr inbounds nuw %struct.sqlparseInfo, ptr %76, i32 0, i32 0
  store i32 1, ptr %77, align 8
  %78 = load ptr, ptr %4, align 8
  %79 = getelementptr inbounds nuw %struct._archiveHandle, ptr %78, i32 0, i32 7
  %80 = getelementptr inbounds nuw %struct.sqlparseInfo, ptr %79, i32 0, i32 1
  store i8 0, ptr %80, align 4
  br label %90

81:                                               ; preds = %70
  %82 = load i8, ptr %9, align 1
  %83 = sext i8 %82 to i32
  %84 = icmp eq i32 %83, 34
  br i1 %84, label %85, label %89

85:                                               ; preds = %81
  %86 = load ptr, ptr %4, align 8
  %87 = getelementptr inbounds nuw %struct._archiveHandle, ptr %86, i32 0, i32 7
  %88 = getelementptr inbounds nuw %struct.sqlparseInfo, ptr %87, i32 0, i32 0
  store i32 2, ptr %88, align 8
  br label %89

89:                                               ; preds = %85, %81
  br label %90

90:                                               ; preds = %89, %74
  br label %91

91:                                               ; preds = %90, %58
  br label %142

92:                                               ; preds = %49
  %93 = load i8, ptr %9, align 1
  %94 = sext i8 %93 to i32
  %95 = icmp eq i32 %94, 39
  br i1 %95, label %96, label %106

96:                                               ; preds = %92
  %97 = load ptr, ptr %4, align 8
  %98 = getelementptr inbounds nuw %struct._archiveHandle, ptr %97, i32 0, i32 7
  %99 = getelementptr inbounds nuw %struct.sqlparseInfo, ptr %98, i32 0, i32 1
  %100 = load i8, ptr %99, align 4, !range !4, !noundef !5
  %101 = trunc i8 %100 to i1
  br i1 %101, label %106, label %102

102:                                              ; preds = %96
  %103 = load ptr, ptr %4, align 8
  %104 = getelementptr inbounds nuw %struct._archiveHandle, ptr %103, i32 0, i32 7
  %105 = getelementptr inbounds nuw %struct.sqlparseInfo, ptr %104, i32 0, i32 0
  store i32 0, ptr %105, align 8
  br label %132

106:                                              ; preds = %96, %92
  %107 = load i8, ptr %9, align 1
  %108 = sext i8 %107 to i32
  %109 = icmp eq i32 %108, 92
  br i1 %109, label %110, label %127

110:                                              ; preds = %106
  %111 = load ptr, ptr %4, align 8
  %112 = getelementptr inbounds nuw %struct._archiveHandle, ptr %111, i32 0, i32 0
  %113 = getelementptr inbounds nuw %struct.Archive, ptr %112, i32 0, i32 11
  %114 = load i8, ptr %113, align 4, !range !4, !noundef !5
  %115 = trunc i8 %114 to i1
  br i1 %115, label %127, label %116

116:                                              ; preds = %110
  %117 = load ptr, ptr %4, align 8
  %118 = getelementptr inbounds nuw %struct._archiveHandle, ptr %117, i32 0, i32 7
  %119 = getelementptr inbounds nuw %struct.sqlparseInfo, ptr %118, i32 0, i32 1
  %120 = load i8, ptr %119, align 4, !range !4, !noundef !5
  %121 = trunc i8 %120 to i1
  %122 = xor i1 %121, true
  %123 = load ptr, ptr %4, align 8
  %124 = getelementptr inbounds nuw %struct._archiveHandle, ptr %123, i32 0, i32 7
  %125 = getelementptr inbounds nuw %struct.sqlparseInfo, ptr %124, i32 0, i32 1
  %126 = zext i1 %122 to i8
  store i8 %126, ptr %125, align 4
  br label %131

127:                                              ; preds = %110, %106
  %128 = load ptr, ptr %4, align 8
  %129 = getelementptr inbounds nuw %struct._archiveHandle, ptr %128, i32 0, i32 7
  %130 = getelementptr inbounds nuw %struct.sqlparseInfo, ptr %129, i32 0, i32 1
  store i8 0, ptr %130, align 4
  br label %131

131:                                              ; preds = %127, %116
  br label %132

132:                                              ; preds = %131, %102
  br label %142

133:                                              ; preds = %49
  %134 = load i8, ptr %9, align 1
  %135 = sext i8 %134 to i32
  %136 = icmp eq i32 %135, 34
  br i1 %136, label %137, label %141

137:                                              ; preds = %133
  %138 = load ptr, ptr %4, align 8
  %139 = getelementptr inbounds nuw %struct._archiveHandle, ptr %138, i32 0, i32 7
  %140 = getelementptr inbounds nuw %struct.sqlparseInfo, ptr %139, i32 0, i32 0
  store i32 0, ptr %140, align 8
  br label %141

141:                                              ; preds = %137, %133
  br label %142

142:                                              ; preds = %49, %141, %132, %91
  call void @llvm.lifetime.end.p0(i64 1, ptr %9) #9
  br label %143

143:                                              ; preds = %142
  %144 = load ptr, ptr %7, align 8
  %145 = getelementptr inbounds nuw i8, ptr %144, i32 1
  store ptr %145, ptr %7, align 8
  br label %25, !llvm.loop !8

146:                                              ; preds = %25
  call void @llvm.lifetime.end.p0(i64 8, ptr %8) #9
  call void @llvm.lifetime.end.p0(i64 8, ptr %7) #9
  ret void
}

; Function Attrs: nounwind uwtable
define dso_local i32 @ExecuteSqlCommandBuf(ptr noundef %0, ptr noundef %1, i64 noundef %2) #0 {
  %4 = alloca ptr, align 8
  %5 = alloca ptr, align 8
  %6 = alloca i64, align 8
  %7 = alloca ptr, align 8
  %8 = alloca ptr, align 8
  store ptr %0, ptr %4, align 8
  store ptr %1, ptr %5, align 8
  store i64 %2, ptr %6, align 8
  call void @llvm.lifetime.start.p0(i64 8, ptr %7) #9
  %9 = load ptr, ptr %4, align 8
  store ptr %9, ptr %7, align 8
  %10 = load ptr, ptr %7, align 8
  %11 = getelementptr inbounds nuw %struct._archiveHandle, ptr %10, i32 0, i32 45
  %12 = load i32, ptr %11, align 4
  %13 = icmp eq i32 %12, 1
  br i1 %13, label %14, label %37

14:                                               ; preds = %3
  %15 = load ptr, ptr %7, align 8
  %16 = getelementptr inbounds nuw %struct._archiveHandle, ptr %15, i32 0, i32 46
  %17 = load i8, ptr %16, align 8, !range !4, !noundef !5
  %18 = trunc i8 %17 to i1
  br i1 %18, label %19, label %36

19:                                               ; preds = %14
  %20 = load ptr, ptr %7, align 8
  %21 = getelementptr inbounds nuw %struct._archiveHandle, ptr %20, i32 0, i32 42
  %22 = load ptr, ptr %21, align 8
  %23 = load ptr, ptr %5, align 8
  %24 = load i64, ptr %6, align 8
  %25 = trunc i64 %24 to i32
  %26 = call i32 @PQputCopyData(ptr noundef %22, ptr noundef %23, i32 noundef %25)
  %27 = icmp sle i32 %26, 0
  br i1 %27, label %28, label %36

28:                                               ; preds = %19
  br label %29

29:                                               ; preds = %28
  %30 = load ptr, ptr %7, align 8
  %31 = getelementptr inbounds nuw %struct._archiveHandle, ptr %30, i32 0, i32 42
  %32 = load ptr, ptr %31, align 8
  %33 = call ptr @PQerrorMessage(ptr noundef %32)
  call void (i32, i32, ptr, ...) @pg_log_generic(i32 noundef 4, i32 noundef 0, ptr noundef @.str.14, ptr noundef %33)
  call void @exit_nicely(i32 noundef 1) #10
  unreachable

34:                                               ; No predecessors!
  br label %35

35:                                               ; preds = %34
  br label %36

36:                                               ; preds = %35, %19, %14
  br label %71

37:                                               ; preds = %3
  %38 = load ptr, ptr %7, align 8
  %39 = getelementptr inbounds nuw %struct._archiveHandle, ptr %38, i32 0, i32 45
  %40 = load i32, ptr %39, align 4
  %41 = icmp eq i32 %40, 2
  br i1 %41, label %42, label %46

42:                                               ; preds = %37
  %43 = load ptr, ptr %7, align 8
  %44 = load ptr, ptr %5, align 8
  %45 = load i64, ptr %6, align 8
  call void @ExecuteSimpleCommands(ptr noundef %43, ptr noundef %44, i64 noundef %45)
  br label %70

46:                                               ; preds = %37
  %47 = load ptr, ptr %5, align 8
  %48 = load i64, ptr %6, align 8
  %49 = getelementptr inbounds nuw i8, ptr %47, i64 %48
  %50 = load i8, ptr %49, align 1
  %51 = sext i8 %50 to i32
  %52 = icmp eq i32 %51, 0
  br i1 %52, label %53, label %56

53:                                               ; preds = %46
  %54 = load ptr, ptr %7, align 8
  %55 = load ptr, ptr %5, align 8
  call void @ExecuteSqlCommand(ptr noundef %54, ptr noundef %55, ptr noundef @.str.15)
  br label %69

56:                                               ; preds = %46
  call void @llvm.lifetime.start.p0(i64 8, ptr %8) #9
  %57 = load i64, ptr %6, align 8
  %58 = add i64 %57, 1
  %59 = call ptr @pg_malloc(i64 noundef %58)
  store ptr %59, ptr %8, align 8
  %60 = load ptr, ptr %8, align 8
  %61 = load ptr, ptr %5, align 8
  %62 = load i64, ptr %6, align 8
  call void @llvm.memcpy.p0.p0.i64(ptr align 1 %60, ptr align 1 %61, i64 %62, i1 false)
  %63 = load ptr, ptr %8, align 8
  %64 = load i64, ptr %6, align 8
  %65 = getelementptr inbounds nuw i8, ptr %63, i64 %64
  store i8 0, ptr %65, align 1
  %66 = load ptr, ptr %7, align 8
  %67 = load ptr, ptr %8, align 8
  call void @ExecuteSqlCommand(ptr noundef %66, ptr noundef %67, ptr noundef @.str.15)
  %68 = load ptr, ptr %8, align 8
  call void @free(ptr noundef %68) #9
  call void @llvm.lifetime.end.p0(i64 8, ptr %8) #9
  br label %69

69:                                               ; preds = %56, %53
  br label %70

70:                                               ; preds = %69, %42
  br label %71

71:                                               ; preds = %70, %36
  %72 = load i64, ptr %6, align 8
  %73 = trunc i64 %72 to i32
  call void @llvm.lifetime.end.p0(i64 8, ptr %7) #9
  ret i32 %73
}