; Function Attrs: nounwind uwtable
define dso_local noundef i32 @ExecuteSqlCommandBuf(ptr noundef %0, ptr noundef %1, i64 noundef %2) local_unnamed_addr #0 {
  %4 = getelementptr inbounds nuw i8, ptr %0, i64 460
  %5 = load i32, ptr %4, align 4
  switch i32 %5, label %73 [
    i32 1, label %6
    i32 2, label %19
  ]

6:                                                ; preds = %3
  %7 = getelementptr inbounds nuw i8, ptr %0, i64 464
  %8 = load i8, ptr %7, align 8, !range !6, !noundef !7
  %9 = trunc nuw i8 %8 to i1
  br i1 %9, label %10, label %ExecuteSimpleCommands.exit

10:                                               ; preds = %6
  %11 = getelementptr inbounds nuw i8, ptr %0, i64 440
  %12 = load ptr, ptr %11, align 8
  %13 = trunc i64 %2 to i32
  %14 = tail call i32 @PQputCopyData(ptr noundef %12, ptr noundef %1, i32 noundef %13) #11
  %15 = icmp slt i32 %14, 1
  br i1 %15, label %16, label %ExecuteSimpleCommands.exit

16:                                               ; preds = %10
  %17 = load ptr, ptr %11, align 8
  %18 = tail call ptr @PQerrorMessage(ptr noundef %17) #11
  tail call void (i32, i32, ptr, ...) @pg_log_generic(i32 noundef 4, i32 noundef 0, ptr noundef nonnull @.str.14, ptr noundef %18) #11
  tail call void @exit_nicely(i32 noundef 1) #12
  unreachable

19:                                               ; preds = %3
  %20 = getelementptr inbounds nuw i8, ptr %1, i64 %2
  %21 = getelementptr inbounds nuw i8, ptr %0, i64 152
  %22 = getelementptr inbounds nuw i8, ptr %0, i64 160
  %23 = load ptr, ptr %22, align 8
  %24 = icmp eq ptr %23, null
  br i1 %24, label %25, label %27

25:                                               ; preds = %19
  %26 = tail call ptr @createPQExpBuffer() #11
  store ptr %26, ptr %22, align 8
  br label %27

27:                                               ; preds = %25, %19
  %.not.i = icmp eq i64 %2, 0
  br i1 %.not.i, label %ExecuteSimpleCommands.exit, label %.lr.ph.i

.lr.ph.i:                                         ; preds = %27
  %28 = getelementptr inbounds nuw i8, ptr %0, i64 68
  %29 = getelementptr inbounds nuw i8, ptr %0, i64 156
  %30 = getelementptr inbounds nuw i8, ptr %0, i64 440
  %31 = getelementptr inbounds nuw i8, ptr %0, i64 464
  br label %32

32:                                               ; preds = %70, %.lr.ph.i
  %.033.i = phi ptr [ %1, %.lr.ph.i ], [ %71, %70 ]
  %33 = load i8, ptr %.033.i, align 1
  %34 = icmp eq i8 %33, 10
  %.pre.i = load ptr, ptr %22, align 8
  br i1 %34, label %35, label %39

35:                                               ; preds = %32
  %36 = getelementptr inbounds nuw i8, ptr %.pre.i, i64 8
  %37 = load i64, ptr %36, align 8
  %38 = icmp eq i64 %37, 0
  br i1 %38, label %40, label %39

39:                                               ; preds = %35, %32
  tail call void @appendPQExpBufferChar(ptr noundef %.pre.i, i8 noundef signext %33) #11
  br label %40

40:                                               ; preds = %39, %35
  %41 = load i32, ptr %21, align 8
  switch i32 %41, label %70 [
    i32 0, label %42
    i32 1, label %55
    i32 2, label %67
  ]

42:                                               ; preds = %40
  switch i8 %33, label %70 [
    i8 59, label %43
    i8 39, label %53
    i8 34, label %54
  ]

43:                                               ; preds = %42
  %44 = load ptr, ptr %22, align 8
  %45 = load ptr, ptr %44, align 8
  %46 = load ptr, ptr %30, align 8
  %47 = tail call ptr @PQexec(ptr noundef %46, ptr noundef %45) #11
  %48 = tail call i32 @PQresultStatus(ptr noundef %47) #11
  switch i32 %48, label %50 [
    i32 1, label %ExecuteSqlCommand.exit.i
    i32 2, label %ExecuteSqlCommand.exit.i
    i32 0, label %ExecuteSqlCommand.exit.i
    i32 4, label %49
  ]

49:                                               ; preds = %43
  store i8 1, ptr %31, align 8
  br label %ExecuteSqlCommand.exit.i

50:                                               ; preds = %43
  %51 = tail call ptr @PQerrorMessage(ptr noundef %46) #11
  tail call void (ptr, ptr, ...) @warn_or_exit_horribly(ptr noundef nonnull %0, ptr noundef nonnull @.str.38, ptr noundef nonnull @.str.15, ptr noundef %51, ptr noundef %45) #11
  br label %ExecuteSqlCommand.exit.i

ExecuteSqlCommand.exit.i:                         ; preds = %50, %49, %43, %43, %43
  tail call void @PQclear(ptr noundef %47) #11
  %52 = load ptr, ptr %22, align 8
  tail call void @resetPQExpBuffer(ptr noundef %52) #11
  br label %70

53:                                               ; preds = %42
  store i32 1, ptr %21, align 8
  store i8 0, ptr %29, align 4
  br label %70

54:                                               ; preds = %42
  store i32 2, ptr %21, align 8
  br label %70

55:                                               ; preds = %40
  switch i8 %33, label %66 [
    i8 39, label %56
    i8 92, label %60
  ]

56:                                               ; preds = %55
  %57 = load i8, ptr %29, align 4, !range !6, !noundef !7
  %58 = trunc nuw i8 %57 to i1
  br i1 %58, label %66, label %59

59:                                               ; preds = %56
  store i32 0, ptr %21, align 8
  br label %70

60:                                               ; preds = %55
  %61 = load i8, ptr %28, align 4, !range !6, !noundef !7
  %62 = trunc nuw i8 %61 to i1
  br i1 %62, label %66, label %63

63:                                               ; preds = %60
  %64 = load i8, ptr %29, align 4, !range !6, !noundef !7
  %65 = xor i8 %64, 1
  store i8 %65, ptr %29, align 4
  br label %70

66:                                               ; preds = %60, %56, %55
  store i8 0, ptr %29, align 4
  br label %70

67:                                               ; preds = %40
  %68 = icmp eq i8 %33, 34
  br i1 %68, label %69, label %70

69:                                               ; preds = %67
  store i32 0, ptr %21, align 8
  br label %70

70:                                               ; preds = %69, %67, %66, %63, %59, %54, %53, %ExecuteSqlCommand.exit.i, %42, %40
  %71 = getelementptr inbounds nuw i8, ptr %.033.i, i64 1
  %72 = icmp ult ptr %71, %20
  br i1 %72, label %32, label %ExecuteSimpleCommands.exit, !llvm.loop !8

73:                                               ; preds = %3
  %74 = getelementptr inbounds nuw i8, ptr %1, i64 %2
  %75 = load i8, ptr %74, align 1
  %76 = icmp eq i8 %75, 0
  br i1 %76, label %77, label %86

77:                                               ; preds = %73
  %78 = getelementptr inbounds nuw i8, ptr %0, i64 440
  %79 = load ptr, ptr %78, align 8
  %80 = tail call ptr @PQexec(ptr noundef %79, ptr noundef nonnull %1) #11
  %81 = tail call i32 @PQresultStatus(ptr noundef %80) #11
  switch i32 %81, label %84 [
    i32 1, label %ExecuteSqlCommand.exit
    i32 2, label %ExecuteSqlCommand.exit
    i32 0, label %ExecuteSqlCommand.exit
    i32 4, label %82
  ]

82:                                               ; preds = %77
  %83 = getelementptr inbounds nuw i8, ptr %0, i64 464
  store i8 1, ptr %83, align 8
  br label %ExecuteSqlCommand.exit

84:                                               ; preds = %77
  %85 = tail call ptr @PQerrorMessage(ptr noundef %79) #11
  tail call void (ptr, ptr, ...) @warn_or_exit_horribly(ptr noundef nonnull %0, ptr noundef nonnull @.str.38, ptr noundef nonnull @.str.15, ptr noundef %85, ptr noundef nonnull %1) #11
  br label %ExecuteSqlCommand.exit

ExecuteSqlCommand.exit:                           ; preds = %77, %77, %77, %82, %84
  tail call void @PQclear(ptr noundef %80) #11
  br label %ExecuteSimpleCommands.exit

86:                                               ; preds = %73
  %87 = add i64 %2, 1
  %88 = tail call ptr @pg_malloc(i64 noundef %87) #11
  tail call void @llvm.memcpy.p0.p0.i64(ptr align 1 %88, ptr nonnull align 1 %1, i64 %2, i1 false)
  %89 = getelementptr inbounds nuw i8, ptr %88, i64 %2
  store i8 0, ptr %89, align 1
  %90 = getelementptr inbounds nuw i8, ptr %0, i64 440
  %91 = load ptr, ptr %90, align 8
  %92 = tail call ptr @PQexec(ptr noundef %91, ptr noundef %88) #11
  %93 = tail call i32 @PQresultStatus(ptr noundef %92) #11
  switch i32 %93, label %96 [
    i32 1, label %ExecuteSqlCommand.exit24
    i32 2, label %ExecuteSqlCommand.exit24
    i32 0, label %ExecuteSqlCommand.exit24
    i32 4, label %94
  ]

94:                                               ; preds = %86
  %95 = getelementptr inbounds nuw i8, ptr %0, i64 464
  store i8 1, ptr %95, align 8
  br label %ExecuteSqlCommand.exit24

96:                                               ; preds = %86
  %97 = tail call ptr @PQerrorMessage(ptr noundef %91) #11
  tail call void (ptr, ptr, ...) @warn_or_exit_horribly(ptr noundef nonnull %0, ptr noundef nonnull @.str.38, ptr noundef nonnull @.str.15, ptr noundef %97, ptr noundef nonnull %88) #11
  br label %ExecuteSqlCommand.exit24

ExecuteSqlCommand.exit24:                         ; preds = %86, %86, %86, %94, %96
  tail call void @PQclear(ptr noundef %92) #11
  tail call void @free(ptr noundef nonnull %88) #11
  br label %ExecuteSimpleCommands.exit

ExecuteSimpleCommands.exit:                       ; preds = %70, %27, %ExecuteSqlCommand.exit24, %ExecuteSqlCommand.exit, %6, %10
  %98 = trunc i64 %2 to i32
  ret i32 %98
}